target datalayout = "e-m:e-p270:32:32-p271:32:32-p272:64:64-i64:64-i128:128-f80:128-n8:16:32:64-S128"
target triple = "x86_64-pc-linux-gnu"

%"class.llvm::ArrayRef.212" = type { ptr, i64 }
%"struct.llvm::InstrProfRecord" = type { %"class.std::vector.193", %"class.std::vector.198", %"class.std::unique_ptr.203" }
%"class.std::vector.193" = type { %"struct.std::_Vector_base.194" }
%"struct.std::_Vector_base.194" = type { %"struct.std::_Vector_base<unsigned long, std::allocator<unsigned long>>::_Vector_impl" }
%"struct.std::_Vector_base<unsigned long, std::allocator<unsigned long>>::_Vector_impl" = type { %"struct.std::_Vector_base<unsigned long, std::allocator<unsigned long>>::_Vector_impl_data" }
%"struct.std::_Vector_base<unsigned long, std::allocator<unsigned long>>::_Vector_impl_data" = type { ptr, ptr, ptr }
%"class.std::vector.198" = type { %"struct.std::_Vector_base.199" }
%"struct.std::_Vector_base.199" = type { %"struct.std::_Vector_base<unsigned char, std::allocator<unsigned char>>::_Vector_impl" }
%"struct.std::_Vector_base<unsigned char, std::allocator<unsigned char>>::_Vector_impl" = type { %"struct.std::_Vector_base<unsigned char, std::allocator<unsigned char>>::_Vector_impl_data" }
%"struct.std::_Vector_base<unsigned char, std::allocator<unsigned char>>::_Vector_impl_data" = type { ptr, ptr, ptr }
%"class.std::unique_ptr.203" = type { %"struct.std::__uniq_ptr_data.204" }
%"struct.std::__uniq_ptr_data.204" = type { %"class.std::__uniq_ptr_impl.205" }
%"class.std::__uniq_ptr_impl.205" = type { %"class.std::tuple.206" }
%"class.std::tuple.206" = type { %"struct.std::_Tuple_impl.207" }
%"struct.std::_Tuple_impl.207" = type { %"struct.std::_Head_base.210" }
%"struct.std::_Head_base.210" = type { ptr }
%"class.llvm::ArrayRef.224" = type { ptr, i64 }
%"struct.llvm::InstrProfValueSiteRecord" = type { %"class.std::vector.213" }
%"class.std::vector.213" = type { %"struct.std::_Vector_base.214" }
%"struct.std::_Vector_base.214" = type { %"struct.std::_Vector_base<InstrProfValueData, std::allocator<InstrProfValueData>>::_Vector_impl" }
%"struct.std::_Vector_base<InstrProfValueData, std::allocator<InstrProfValueData>>::_Vector_impl" = type { %"struct.std::_Vector_base<InstrProfValueData, std::allocator<InstrProfValueData>>::_Vector_impl_data" }
%"struct.std::_Vector_base<InstrProfValueData, std::allocator<InstrProfValueData>>::_Vector_impl_data" = type { ptr, ptr, ptr }
%"struct.std::_Vector_base.220" = type { %"struct.std::_Vector_base<llvm::InstrProfValueSiteRecord, std::allocator<llvm::InstrProfValueSiteRecord>>::_Vector_impl" }
%"struct.std::_Vector_base<llvm::InstrProfValueSiteRecord, std::allocator<llvm::InstrProfValueSiteRecord>>::_Vector_impl" = type { %"struct.std::_Vector_base<llvm::InstrProfValueSiteRecord, std::allocator<llvm::InstrProfValueSiteRecord>>::_Vector_impl_data" }
%"struct.std::_Vector_base<llvm::InstrProfValueSiteRecord, std::allocator<llvm::InstrProfValueSiteRecord>>::_Vector_impl_data" = type { ptr, ptr, ptr }
%"struct.std::array.378" = type { [3 x %"class.std::vector.219"] }
%"class.std::vector.219" = type { %"struct.std::_Vector_base.220" }

; Function Attrs: mustprogress nounwind uwtable
define linkonce_odr hidden noundef nonnull align 8 dereferenceable(8) ptr @_ZNSt10_Head_baseILm0EPSt5arrayISt6vectorIN4llvm24InstrProfValueSiteRecordESaIS3_EELm3EELb0EE7_M_headERKS8_(ptr noundef nonnull align 8 dereferenceable(8) %0) #1 comdat align 2 {
  %2 = alloca ptr, align 8
  store ptr %0, ptr %2, align 8
  %3 = load ptr, ptr %2, align 8
  %4 = getelementptr inbounds nuw %"struct.std::_Head_base.210", ptr %3, i32 0, i32 0
  ret ptr %4
}

; Function Attrs: mustprogress nounwind uwtable
define linkonce_odr hidden noundef nonnull align 8 dereferenceable(8) ptr @_ZNSt11_Tuple_implILm0EJPSt5arrayISt6vectorIN4llvm24InstrProfValueSiteRecordESaIS3_EELm3EESt14default_deleteIS6_EEE7_M_headERKSA_(ptr noundef nonnull align 8 dereferenceable(8) %0) #1 comdat align 2 {
  %2 = alloca ptr, align 8
  store ptr %0, ptr %2, align 8
  %3 = load ptr, ptr %2, align 8
  %4 = call noundef nonnull align 8 dereferenceable(8) ptr @_ZNSt10_Head_baseILm0EPSt5arrayISt6vectorIN4llvm24InstrProfValueSiteRecordESaIS3_EELm3EELb0EE7_M_headERKS8_(ptr noundef nonnull align 8 dereferenceable(8) %3) #2
  ret ptr %4
}

; Function Attrs: mustprogress nounwind uwtable
define linkonce_odr noundef nonnull align 8 dereferenceable(8) ptr @_ZSt12__get_helperILm0EPSt5arrayISt6vectorIN4llvm24InstrProfValueSiteRecordESaIS3_EELm3EEJSt14default_deleteIS6_EEERKT0_RKSt11_Tuple_implIXT_EJSA_DpT1_EE(ptr noundef nonnull align 8 dereferenceable(8) %0) #1 comdat {
  %2 = alloca ptr, align 8
  store ptr %0, ptr %2, align 8
  %3 = load ptr, ptr %2, align 8
  %4 = call noundef nonnull align 8 dereferenceable(8) ptr @_ZNSt11_Tuple_implILm0EJPSt5arrayISt6vectorIN4llvm24InstrProfValueSiteRecordESaIS3_EELm3EESt14default_deleteIS6_EEE7_M_headERKSA_(ptr noundef nonnull align 8 dereferenceable(8) %3) #2
  ret ptr %4
}

; Function Attrs: mustprogress nounwind uwtable
define linkonce_odr noundef nonnull align 8 dereferenceable(8) ptr @_ZSt3getILm0EJPSt5arrayISt6vectorIN4llvm24InstrProfValueSiteRecordESaIS3_EELm3EESt14default_deleteIS6_EEERKNSt13tuple_elementIXT_ESt5tupleIJDpT0_EEE4typeERKSE_(ptr noundef nonnull align 8 dereferenceable(8) %0) #1 comdat {
  %2 = alloca ptr, align 8
  store ptr %0, ptr %2, align 8
  %3 = load ptr, ptr %2, align 8
  %4 = call noundef nonnull align 8 dereferenceable(8) ptr @_ZSt12__get_helperILm0EPSt5arrayISt6vectorIN4llvm24InstrProfValueSiteRecordESaIS3_EELm3EEJSt14default_deleteIS6_EEERKT0_RKSt11_Tuple_implIXT_EJSA_DpT1_EE(ptr noundef nonnull align 8 dereferenceable(8) %3) #2
  ret ptr %4
}

; Function Attrs: mustprogress nounwind uwtable
define linkonce_odr hidden noundef ptr @_ZNKSt6vectorIN4llvm24InstrProfValueSiteRecordESaIS1_EE11_M_data_ptrIS1_EEPT_S6_(ptr noundef nonnull align 8 dereferenceable(24) %0, ptr noundef %1) #1 comdat align 2 {
  %3 = alloca ptr, align 8
  %4 = alloca ptr, align 8
  store ptr %0, ptr %3, align 8
  store ptr %1, ptr %4, align 8
  %5 = load ptr, ptr %4, align 8
  ret ptr %5
}

; Function Attrs: mustprogress nounwind uwtable
define linkonce_odr hidden noundef ptr @_ZNKSt15__uniq_ptr_implISt5arrayISt6vectorIN4llvm24InstrProfValueSiteRecordESaIS3_EELm3EESt14default_deleteIS6_EE6_M_ptrEv(ptr noundef nonnull align 8 dereferenceable(8) %0) #1 comdat align 2 {
  %2 = alloca ptr, align 8
  store ptr %0, ptr %2, align 8
  %3 = load ptr, ptr %2, align 8
  %4 = getelementptr inbounds nuw %"class.std::__uniq_ptr_impl.205", ptr %3, i32 0, i32 0
  %5 = call noundef nonnull align 8 dereferenceable(8) ptr @_ZSt3getILm0EJPSt5arrayISt6vectorIN4llvm24InstrProfValueSiteRecordESaIS3_EELm3EESt14default_deleteIS6_EEERKNSt13tuple_elementIXT_ESt5tupleIJDpT0_EEE4typeERKSE_(ptr noundef nonnull align 8 dereferenceable(8) %4) #2
  %6 = load ptr, ptr %5, align 8
  ret ptr %6
}

; Function Attrs: mustprogress nounwind uwtable
define linkonce_odr hidden noundef ptr @_ZNKSt6vectorI18InstrProfValueDataSaIS0_EE11_M_data_ptrIS0_EEPT_S5_(ptr noundef nonnull align 8 dereferenceable(24) %0, ptr noundef %1) #1 comdat align 2 {
  %3 = alloca ptr, align 8
  %4 = alloca ptr, align 8
  store ptr %0, ptr %3, align 8
  store ptr %1, ptr %4, align 8
  %5 = load ptr, ptr %4, align 8
  ret ptr %5
}

; Function Attrs: mustprogress nounwind uwtable
define linkonce_odr hidden noundef i64 @_ZNKSt6vectorIN4llvm24InstrProfValueSiteRecordESaIS1_EE4sizeEv(ptr noundef nonnull align 8 dereferenceable(24) %0) #1 comdat align 2 {
  %2 = alloca ptr, align 8
  store ptr %0, ptr %2, align 8
  %3 = load ptr, ptr %2, align 8
  %4 = getelementptr inbounds nuw %"struct.std::_Vector_base.220", ptr %3, i32 0, i32 0
  %5 = getelementptr inbounds nuw %"struct.std::_Vector_base<llvm::InstrProfValueSiteRecord, std::allocator<llvm::InstrProfValueSiteRecord>>::_Vector_impl_data", ptr %4, i32 0, i32 1
  %6 = load ptr, ptr %5, align 8
  %7 = getelementptr inbounds nuw %"struct.std::_Vector_base.220", ptr %3, i32 0, i32 0
  %8 = getelementptr inbounds nuw %"struct.std::_Vector_base<llvm::InstrProfValueSiteRecord, std::allocator<llvm::InstrProfValueSiteRecord>>::_Vector_impl_data", ptr %7, i32 0, i32 0
  %9 = load ptr, ptr %8, align 8
  %10 = ptrtoint ptr %6 to i64
  %11 = ptrtoint ptr %9 to i64
  %12 = sub i64 %10, %11
  %13 = sdiv exact i64 %12, 24
  ret i64 %13
}

; Function Attrs: mustprogress nounwind uwtable
define linkonce_odr hidden noundef ptr @_ZNKSt6vectorIN4llvm24InstrProfValueSiteRecordESaIS1_EE4dataEv(ptr noundef nonnull align 8 dereferenceable(24) %0) #1 comdat align 2 {
  %2 = alloca ptr, align 8
  store ptr %0, ptr %2, align 8
  %3 = load ptr, ptr %2, align 8
  %4 = getelementptr inbounds nuw %"struct.std::_Vector_base.220", ptr %3, i32 0, i32 0
  %5 = getelementptr inbounds nuw %"struct.std::_Vector_base<llvm::InstrProfValueSiteRecord, std::allocator<llvm::InstrProfValueSiteRecord>>::_Vector_impl_data", ptr %4, i32 0, i32 0
  %6 = load ptr, ptr %5, align 8
  %7 = call noundef ptr @_ZNKSt6vectorIN4llvm24InstrProfValueSiteRecordESaIS1_EE11_M_data_ptrIS1_EEPT_S6_(ptr noundef nonnull align 8 dereferenceable(24) %3, ptr noundef %6) #2
  ret ptr %7
}

; Function Attrs: mustprogress nounwind uwtable
define linkonce_odr hidden noundef nonnull align 8 dereferenceable(24) ptr @_ZNSt14__array_traitsISt6vectorIN4llvm24InstrProfValueSiteRecordESaIS2_EELm3EE6_S_refERA3_KS4_m(ptr noundef nonnull align 8 dereferenceable(72) %0, i64 noundef %1) #1 comdat align 2 {
  %3 = alloca ptr, align 8
  %4 = alloca i64, align 8
  store ptr %0, ptr %3, align 8
  store i64 %1, ptr %4, align 8
  %5 = load ptr, ptr %3, align 8
  %6 = load i64, ptr %4, align 8
  %7 = getelementptr inbounds [3 x %"class.std::vector.219"], ptr %5, i64 0, i64 %6
  ret ptr %7
}

; Function Attrs: mustprogress nounwind uwtable
define linkonce_odr hidden noundef ptr @_ZNKSt10unique_ptrISt5arrayISt6vectorIN4llvm24InstrProfValueSiteRecordESaIS3_EELm3EESt14default_deleteIS6_EE3getEv(ptr noundef nonnull align 8 dereferenceable(8) %0) #1 comdat align 2 {
  %2 = alloca ptr, align 8
  store ptr %0, ptr %2, align 8
  %3 = load ptr, ptr %2, align 8
  %4 = getelementptr inbounds nuw %"class.std::unique_ptr.203", ptr %3, i32 0, i32 0
  %5 = call noundef ptr @_ZNKSt15__uniq_ptr_implISt5arrayISt6vectorIN4llvm24InstrProfValueSiteRecordESaIS3_EELm3EESt14default_deleteIS6_EE6_M_ptrEv(ptr noundef nonnull align 8 dereferenceable(8) %4) #2
  ret ptr %5
}

; Function Attrs: mustprogress nounwind uwtable
define linkonce_odr hidden noundef i64 @_ZNKSt6vectorI18InstrProfValueDataSaIS0_EE4sizeEv(ptr noundef nonnull align 8 dereferenceable(24) %0) #1 comdat align 2 {
  %2 = alloca ptr, align 8
  store ptr %0, ptr %2, align 8
  %3 = load ptr, ptr %2, align 8
  %4 = getelementptr inbounds nuw %"struct.std::_Vector_base.214", ptr %3, i32 0, i32 0
  %5 = getelementptr inbounds nuw %"struct.std::_Vector_base<InstrProfValueData, std::allocator<InstrProfValueData>>::_Vector_impl_data", ptr %4, i32 0, i32 1
  %6 = load ptr, ptr %5, align 8
  %7 = getelementptr inbounds nuw %"struct.std::_Vector_base.214", ptr %3, i32 0, i32 0
  %8 = getelementptr inbounds nuw %"struct.std::_Vector_base<InstrProfValueData, std::allocator<InstrProfValueData>>::_Vector_impl_data", ptr %7, i32 0, i32 0
  %9 = load ptr, ptr %8, align 8
  %10 = ptrtoint ptr %6 to i64
  %11 = ptrtoint ptr %9 to i64
  %12 = sub i64 %10, %11
  %13 = sdiv exact i64 %12, 16
  ret i64 %13
}

; Function Attrs: mustprogress nounwind uwtable
define linkonce_odr hidden noundef ptr @_ZNKSt6vectorI18InstrProfValueDataSaIS0_EE4dataEv(ptr noundef nonnull align 8 dereferenceable(24) %0) #1 comdat align 2 {
  %2 = alloca ptr, align 8
  store ptr %0, ptr %2, align 8
  %3 = load ptr, ptr %2, align 8
  %4 = getelementptr inbounds nuw %"struct.std::_Vector_base.214", ptr %3, i32 0, i32 0
  %5 = getelementptr inbounds nuw %"struct.std::_Vector_base<InstrProfValueData, std::allocator<InstrProfValueData>>::_Vector_impl_data", ptr %4, i32 0, i32 0
  %6 = load ptr, ptr %5, align 8
  %7 = call noundef ptr @_ZNKSt6vectorI18InstrProfValueDataSaIS0_EE11_M_data_ptrIS0_EEPT_S5_(ptr noundef nonnull align 8 dereferenceable(24) %3, ptr noundef %6) #2
  ret ptr %7
}

; Function Attrs: mustprogress nounwind uwtable
define linkonce_odr hidden void @_ZN4llvm8ArrayRefINS_24InstrProfValueSiteRecordEEC2ISaIS1_EEERKSt6vectorIS1_T_E(ptr noundef nonnull align 8 dereferenceable(16) %0, ptr noundef nonnull align 8 dereferenceable(24) %1) unnamed_addr #1 comdat align 2 {
  %3 = alloca ptr, align 8
  %4 = alloca ptr, align 8
  store ptr %0, ptr %3, align 8
  store ptr %1, ptr %4, align 8
  %5 = load ptr, ptr %3, align 8
  %6 = getelementptr inbounds nuw %"class.llvm::ArrayRef.224", ptr %5, i32 0, i32 0
  %7 = load ptr, ptr %4, align 8
  %8 = call noundef ptr @_ZNKSt6vectorIN4llvm24InstrProfValueSiteRecordESaIS1_EE4dataEv(ptr noundef nonnull align 8 dereferenceable(24) %7) #2
  store ptr %8, ptr %6, align 8
  %9 = getelementptr inbounds nuw %"class.llvm::ArrayRef.224", ptr %5, i32 0, i32 1
  %10 = load ptr, ptr %4, align 8
  %11 = call noundef i64 @_ZNKSt6vectorIN4llvm24InstrProfValueSiteRecordESaIS1_EE4sizeEv(ptr noundef nonnull align 8 dereferenceable(24) %10) #2
  store i64 %11, ptr %9, align 8
  ret void
}

; Function Attrs: mustprogress nounwind uwtable
define linkonce_odr hidden noundef nonnull align 8 dereferenceable(24) ptr @_ZNSt5arrayISt6vectorIN4llvm24InstrProfValueSiteRecordESaIS2_EELm3EEixEm(ptr noundef nonnull align 8 dereferenceable(72) %0, i64 noundef %1) #1 comdat align 2 {
  %3 = alloca ptr, align 8
  %4 = alloca i64, align 8
  store ptr %0, ptr %3, align 8
  store i64 %1, ptr %4, align 8
  %5 = load ptr, ptr %3, align 8
  %6 = getelementptr inbounds nuw %"struct.std::array.378", ptr %5, i32 0, i32 0
  %7 = load i64, ptr %4, align 8
  %8 = call noundef nonnull align 8 dereferenceable(24) ptr @_ZNSt14__array_traitsISt6vectorIN4llvm24InstrProfValueSiteRecordESaIS2_EELm3EE6_S_refERA3_KS4_m(ptr noundef nonnull align 8 dereferenceable(72) %6, i64 noundef %7) #2
  ret ptr %8
}

; Function Attrs: mustprogress nounwind uwtable
define linkonce_odr hidden noundef nonnull align 8 dereferenceable(72) ptr @_ZNKSt10unique_ptrISt5arrayISt6vectorIN4llvm24InstrProfValueSiteRecordESaIS3_EELm3EESt14default_deleteIS6_EEdeEv(ptr noundef nonnull align 8 dereferenceable(8) %0) #1 comdat align 2 {
  %2 = alloca ptr, align 8
  store ptr %0, ptr %2, align 8
  %3 = load ptr, ptr %2, align 8
  br label %4

4:                                                ; preds = %1
  br label %5

5:                                                ; preds = %4
  %6 = call noundef ptr @_ZNKSt10unique_ptrISt5arrayISt6vectorIN4llvm24InstrProfValueSiteRecordESaIS3_EELm3EESt14default_deleteIS6_EE3getEv(ptr noundef nonnull align 8 dereferenceable(8) %3) #2
  ret ptr %6
}

; Function Attrs: mustprogress nounwind uwtable
define linkonce_odr hidden void @_ZN4llvm8ArrayRefINS_24InstrProfValueSiteRecordEEC2ESt9nullopt_t(ptr noundef nonnull align 8 dereferenceable(16) %0) unnamed_addr #1 comdat align 2 {
  %2 = alloca ptr, align 8
  store ptr %0, ptr %2, align 8
  %3 = load ptr, ptr %2, align 8
  %4 = getelementptr inbounds nuw %"class.llvm::ArrayRef.224", ptr %3, i32 0, i32 0
  store ptr null, ptr %4, align 8
  %5 = getelementptr inbounds nuw %"class.llvm::ArrayRef.224", ptr %3, i32 0, i32 1
  store i64 0, ptr %5, align 8
  ret void
}

; Function Attrs: mustprogress nounwind uwtable
define linkonce_odr hidden noundef zeroext i1 @_ZNKSt10unique_ptrISt5arrayISt6vectorIN4llvm24InstrProfValueSiteRecordESaIS3_EELm3EESt14default_deleteIS6_EEcvbEv(ptr noundef nonnull align 8 dereferenceable(8) %0) #1 comdat align 2 {
  %2 = alloca ptr, align 8
  store ptr %0, ptr %2, align 8
  %3 = load ptr, ptr %2, align 8
  %4 = call noundef ptr @_ZNKSt10unique_ptrISt5arrayISt6vectorIN4llvm24InstrProfValueSiteRecordESaIS3_EELm3EESt14default_deleteIS6_EE3getEv(ptr noundef nonnull align 8 dereferenceable(8) %3) #2
  %5 = icmp eq ptr %4, null
  %6 = select i1 %5, i1 false, i1 true
  ret i1 %6
}

; Function Attrs: mustprogress nounwind uwtable
define linkonce_odr hidden void @_ZN4llvm8ArrayRefI18InstrProfValueDataEC2ISaIS1_EEERKSt6vectorIS1_T_E(ptr noundef nonnull align 8 dereferenceable(16) %0, ptr noundef nonnull align 8 dereferenceable(24) %1) unnamed_addr #1 comdat align 2 {
  %3 = alloca ptr, align 8
  %4 = alloca ptr, align 8
  store ptr %0, ptr %3, align 8
  store ptr %1, ptr %4, align 8
  %5 = load ptr, ptr %3, align 8
  %6 = getelementptr inbounds nuw %"class.llvm::ArrayRef.212", ptr %5, i32 0, i32 0
  %7 = load ptr, ptr %4, align 8
  %8 = call noundef ptr @_ZNKSt6vectorI18InstrProfValueDataSaIS0_EE4dataEv(ptr noundef nonnull align 8 dereferenceable(24) %7) #2
  store ptr %8, ptr %6, align 8
  %9 = getelementptr inbounds nuw %"class.llvm::ArrayRef.212", ptr %5, i32 0, i32 1
  %10 = load ptr, ptr %4, align 8
  %11 = call noundef i64 @_ZNKSt6vectorI18InstrProfValueDataSaIS0_EE4sizeEv(ptr noundef nonnull align 8 dereferenceable(24) %10) #2
  store i64 %11, ptr %9, align 8
  ret void
}

; Function Attrs: mustprogress nounwind uwtable
define linkonce_odr hidden noundef nonnull align 8 dereferenceable(24) ptr @_ZNK4llvm8ArrayRefINS_24InstrProfValueSiteRecordEEixEm(ptr noundef nonnull align 8 dereferenceable(16) %0, i64 noundef %1) #1 comdat align 2 {
  %3 = alloca ptr, align 8
  %4 = alloca i64, align 8
  store ptr %0, ptr %3, align 8
  store i64 %1, ptr %4, align 8
  %5 = load ptr, ptr %3, align 8
  %6 = getelementptr inbounds nuw %"class.llvm::ArrayRef.224", ptr %5, i32 0, i32 0
  %7 = load ptr, ptr %6, align 8
  %8 = load i64, ptr %4, align 8
  %9 = getelementptr inbounds %"struct.llvm::InstrProfValueSiteRecord", ptr %7, i64 %8
  ret ptr %9
}

; Function Attrs: mustprogress nounwind uwtable
define linkonce_odr hidden { ptr, i64 } @_ZNK4llvm15InstrProfRecord20getValueSitesForKindEj(ptr noundef nonnull align 8 dereferenceable(56) %0, i32 noundef %1) #1 comdat align 2 {
  %3 = alloca %"class.llvm::ArrayRef.224", align 8
  %4 = alloca ptr, align 8
  %5 = alloca i32, align 4
  store ptr %0, ptr %4, align 8
  store i32 %1, ptr %5, align 4
  %6 = load ptr, ptr %4, align 8
  %7 = getelementptr inbounds nuw %"struct.llvm::InstrProfRecord", ptr %6, i32 0, i32 2
  %8 = call noundef zeroext i1 @_ZNKSt10unique_ptrISt5arrayISt6vectorIN4llvm24InstrProfValueSiteRecordESaIS3_EELm3EESt14default_deleteIS6_EEcvbEv(ptr noundef nonnull align 8 dereferenceable(8) %7) #2
  br i1 %8, label %10, label %9

9:                                                ; preds = %2
  call void @_ZN4llvm8ArrayRefINS_24InstrProfValueSiteRecordEEC2ESt9nullopt_t(ptr noundef nonnull align 8 dereferenceable(16) %3)
  br label %17

10:                                               ; preds = %2
  %11 = getelementptr inbounds nuw %"struct.llvm::InstrProfRecord", ptr %6, i32 0, i32 2
  %12 = call noundef nonnull align 8 dereferenceable(72) ptr @_ZNKSt10unique_ptrISt5arrayISt6vectorIN4llvm24InstrProfValueSiteRecordESaIS3_EELm3EESt14default_deleteIS6_EEdeEv(ptr noundef nonnull align 8 dereferenceable(8) %11) #2
  %13 = load i32, ptr %5, align 4
  %14 = sub i32 %13, 0
  %15 = zext i32 %14 to i64
  %16 = call noundef nonnull align 8 dereferenceable(24) ptr @_ZNSt5arrayISt6vectorIN4llvm24InstrProfValueSiteRecordESaIS2_EELm3EEixEm(ptr noundef nonnull align 8 dereferenceable(72) %12, i64 noundef %15) #2
  call void @_ZN4llvm8ArrayRefINS_24InstrProfValueSiteRecordEEC2ISaIS1_EEERKSt6vectorIS1_T_E(ptr noundef nonnull align 8 dereferenceable(16) %3, ptr noundef nonnull align 8 dereferenceable(24) %16)
  br label %17

17:                                               ; preds = %10, %9
  %18 = load { ptr, i64 }, ptr %3, align 8
  ret { ptr, i64 } %18
}

; Function Attrs: mustprogress nounwind uwtable
define linkonce_odr hidden noundef i64 @_ZNK4llvm8ArrayRefI18InstrProfValueDataE4sizeEv(ptr noundef nonnull align 8 dereferenceable(16) %0) #1 comdat align 2 {
  %2 = alloca ptr, align 8
  store ptr %0, ptr %2, align 8
  %3 = load ptr, ptr %2, align 8
  %4 = getelementptr inbounds nuw %"class.llvm::ArrayRef.212", ptr %3, i32 0, i32 1
  %5 = load i64, ptr %4, align 8
  ret i64 %5
}

; Function Attrs: mustprogress nounwind uwtable
define linkonce_odr hidden { ptr, i64 } @_ZNK4llvm15InstrProfRecord20getValueArrayForSiteEjj(ptr noundef nonnull align 8 dereferenceable(56) %0, i32 noundef %1, i32 noundef %2) #1 comdat align 2 {
  %4 = alloca %"class.llvm::ArrayRef.212", align 8
  %5 = alloca ptr, align 8
  %6 = alloca i32, align 4
  %7 = alloca i32, align 4
  %8 = alloca %"class.llvm::ArrayRef.224", align 8
  store ptr %0, ptr %5, align 8
  store i32 %1, ptr %6, align 4
  store i32 %2, ptr %7, align 4
  %9 = load ptr, ptr %5, align 8
  %10 = load i32, ptr %6, align 4
  %11 = call { ptr, i64 } @_ZNK4llvm15InstrProfRecord20getValueSitesForKindEj(ptr noundef nonnull align 8 dereferenceable(56) %9, i32 noundef %10)
  %12 = getelementptr inbounds nuw { ptr, i64 }, ptr %8, i32 0, i32 0
  %13 = extractvalue { ptr, i64 } %11, 0
  store ptr %13, ptr %12, align 8
  %14 = getelementptr inbounds nuw { ptr, i64 }, ptr %8, i32 0, i32 1
  %15 = extractvalue { ptr, i64 } %11, 1
  store i64 %15, ptr %14, align 8
  %16 = load i32, ptr %7, align 4
  %17 = zext i32 %16 to i64
  %18 = call noundef nonnull align 8 dereferenceable(24) ptr @_ZNK4llvm8ArrayRefINS_24InstrProfValueSiteRecordEEixEm(ptr noundef nonnull align 8 dereferenceable(16) %8, i64 noundef %17)
  %19 = getelementptr inbounds nuw %"struct.llvm::InstrProfValueSiteRecord", ptr %18, i32 0, i32 0
  call void @_ZN4llvm8ArrayRefI18InstrProfValueDataEC2ISaIS1_EEERKSt6vectorIS1_T_E(ptr noundef nonnull align 8 dereferenceable(16) %4, ptr noundef nonnull align 8 dereferenceable(24) %19)
  %20 = load { ptr, i64 }, ptr %4, align 8
  ret { ptr, i64 } %20
}

; Function Attrs: mustprogress nounwind uwtable
define dso_local noundef i32 @_ZN4llvm31getNumValueDataForSiteInstrProfEPKvjj(ptr noundef %0, i32 noundef %1, i32 noundef %2) #1 {
  %4 = alloca ptr, align 8
  %5 = alloca i32, align 4
  %6 = alloca i32, align 4
  %7 = alloca ptr, align 8
  %8 = alloca %"class.llvm::ArrayRef.212", align 8
  store ptr %0, ptr %4, align 8
  store i32 %1, ptr %5, align 4
  store i32 %2, ptr %6, align 4
  %9 = load ptr, ptr %4, align 8
  store ptr %9, ptr %7, align 8
  %10 = load ptr, ptr %7, align 8
  %11 = load i32, ptr %5, align 4
  %12 = load i32, ptr %6, align 4
  %13 = call { ptr, i64 } @_ZNK4llvm15InstrProfRecord20getValueArrayForSiteEjj(ptr noundef nonnull align 8 dereferenceable(56) %10, i32 noundef %11, i32 noundef %12)
  %14 = getelementptr inbounds nuw { ptr, i64 }, ptr %8, i32 0, i32 0
  %15 = extractvalue { ptr, i64 } %13, 0
  store ptr %15, ptr %14, align 8
  %16 = getelementptr inbounds nuw { ptr, i64 }, ptr %8, i32 0, i32 1
  %17 = extractvalue { ptr, i64 } %13, 1
  store i64 %17, ptr %16, align 8
  %18 = call noundef i64 @_ZNK4llvm8ArrayRefI18InstrProfValueDataE4sizeEv(ptr noundef nonnull align 8 dereferenceable(16) %8)
  %19 = trunc i64 %18 to i32
  ret i32 %19
}