; Function Attrs: mustprogress nofree norecurse nosync nounwind willreturn memory(read, inaccessiblemem: none) uwtable
define dso_local noundef i32 @_ZN4llvm31getNumValueDataForSiteInstrProfEPKvjj(ptr noundef readonly captures(none) %0, i32 noundef %1, i32 noundef %2) #8 {
  %4 = getelementptr inbounds nuw i8, ptr %0, i64 48
  %5 = load ptr, ptr %4, align 8, !nonnull !147, !noundef !147
  %6 = zext i32 %1 to i64
  %7 = getelementptr inbounds nuw [3 x %"class.std::vector.219"], ptr %5, i64 0, i64 %6
  %8 = load ptr, ptr %7, align 8
  %9 = zext i32 %2 to i64
  %10 = getelementptr inbounds nuw %"struct.llvm::InstrProfValueSiteRecord", ptr %8, i64 %9
  %11 = load ptr, ptr %10, align 8
  %12 = getelementptr inbounds nuw i8, ptr %10, i64 8
  %13 = load ptr, ptr %12, align 8
  %14 = ptrtoint ptr %13 to i64
  %15 = ptrtoint ptr %11 to i64
  %16 = sub i64 %14, %15
  %17 = lshr exact i64 %16, 4
  %18 = trunc i64 %17 to i32
  ret i32 %18
}